; Function Attrs: mustprogress nounwind uwtable
define internal void @"_ZN7doctest6detail12ContextScopeIZN12_GLOBAL__N_19roundtripEbRKNSt7__cxx1112basic_stringIcSt11char_traitsIcESaIcEEEE3$_0ED0Ev"(ptr noundef nonnull align 8 dereferenceable(24) %this) unnamed_addr #4 align 2 personality ptr @__gxx_personality_v0 {
entry:
  store ptr getelementptr inbounds ({ [5 x ptr] }, ptr @"_ZTVN7doctest6detail12ContextScopeIZN12_GLOBAL__N_19roundtripEbRKNSt7__cxx1112basic_stringIcSt11char_traitsIcESaIcEEEE3$_0EE", i64 0, i32 0, i64 2), ptr %this, align 8
  %need_to_destroy.i = getelementptr inbounds i8, ptr %this, i64 8
  %0 = load i8, ptr %need_to_destroy.i, align 8
  %1 = and i8 %0, 1
  %tobool.not.i = icmp eq i8 %1, 0
  br i1 %tobool.not.i, label %"_ZN7doctest6detail12ContextScopeIZN12_GLOBAL__N_19roundtripEbRKNSt7__cxx1112basic_stringIcSt11char_traitsIcESaIcEEEE3$_0ED2Ev.exit", label %if.then.i

if.then.i:                                        ; preds = %entry
  invoke void @_ZN7doctest6detail16ContextScopeBase7destroyEv(ptr noundef nonnull align 8 dereferenceable(9) %this)
          to label %"_ZN7doctest6detail12ContextScopeIZN12_GLOBAL__N_19roundtripEbRKNSt7__cxx1112basic_stringIcSt11char_traitsIcESaIcEEEE3$_0ED2Ev.exit" unwind label %terminate.lpad.i

terminate.lpad.i:                                 ; preds = %if.then.i
  %2 = landingpad { ptr, i32 }
          catch ptr null
  %3 = extractvalue { ptr, i32 } %2, 0
  tail call void @__clang_call_terminate(ptr %3) #22
  unreachable

"_ZN7doctest6detail12ContextScopeIZN12_GLOBAL__N_19roundtripEbRKNSt7__cxx1112basic_stringIcSt11char_traitsIcESaIcEEEE3$_0ED2Ev.exit": ; preds = %entry, %if.then.i
  tail call void @_ZN7doctest13IContextScopeD2Ev(ptr noundef nonnull align 8 dereferenceable(8) %this) #21
  tail call void @_ZdlPv(ptr noundef nonnull %this) #24
  ret void
}